target datalayout = "e-m:e-p270:32:32-p271:32:32-p272:64:64-i64:64-i128:128-f80:128-n8:16:32:64-S128"
target triple = "x86_64-pc-linux-gnu"

%"class.gmx::FirstOrderPressureCoupling" = type { %"class.gmx::ISimulatorElement", %"class.gmx::ICheckpointHelperClient", i32, float, i32, i32, %"class.gmx::MultiDimArray", [3 x [3 x float]], double, double, i64, i32, ptr, ptr, ptr, ptr, ptr, ptr, %"class.std::__cxx11::basic_string" }
%"class.gmx::ISimulatorElement" = type { ptr }
%"class.gmx::ICheckpointHelperClient" = type { ptr }
%"class.gmx::MultiDimArray" = type { %"struct.std::array", %"class.gmx::basic_mdspan" }
%"struct.std::array" = type { [9 x float] }
%"class.gmx::basic_mdspan" = type { [8 x i8], ptr }
%"class.std::__cxx11::basic_string" = type { %"struct.std::__cxx11::basic_string<char>::_Alloc_hider", i64, %union.anon }
%"struct.std::__cxx11::basic_string<char>::_Alloc_hider" = type { ptr }
%union.anon = type { i64, [8 x i8] }
%class.anon.328 = type { ptr }

; Function Attrs: mustprogress nounwind uwtable
define noundef float @_ZN3gmx26FirstOrderPressureCoupling27conservedEnergyContributionEl(ptr noundef nonnull align 8 dereferenceable(240) %0, i64 noundef %1) #1 align 2 {
  %3 = alloca float, align 4
  %4 = alloca ptr, align 8
  %5 = alloca i64, align 8
  store ptr %0, ptr %4, align 8, !tbaa !4
  store i64 %1, ptr %5, align 8, !tbaa !9
  %6 = load ptr, ptr %4, align 8
  %7 = load i64, ptr %5, align 8, !tbaa !9
  %8 = getelementptr inbounds nuw %"class.gmx::FirstOrderPressureCoupling", ptr %6, i32 0, i32 10
  %9 = load i64, ptr %8, align 8, !tbaa !193
  %10 = icmp eq i64 %7, %9
  br i1 %10, label %11, label %19

11:                                               ; preds = %2
  %12 = getelementptr inbounds nuw %"class.gmx::FirstOrderPressureCoupling", ptr %6, i32 0, i32 11
  %13 = load i32, ptr %12, align 8, !tbaa !284
  %14 = icmp eq i32 %13, 0
  br i1 %14, label %15, label %19

15:                                               ; preds = %11
  %16 = getelementptr inbounds nuw %"class.gmx::FirstOrderPressureCoupling", ptr %6, i32 0, i32 9
  %17 = load double, ptr %16, align 8, !tbaa !189
  %18 = fptrunc double %17 to float
  store float %18, ptr %3, align 4
  br label %23

19:                                               ; preds = %11, %2
  %20 = getelementptr inbounds nuw %"class.gmx::FirstOrderPressureCoupling", ptr %6, i32 0, i32 8
  %21 = load double, ptr %20, align 8, !tbaa !188
  %22 = fptrunc double %21 to float
  store float %22, ptr %3, align 4
  br label %23

23:                                               ; preds = %19, %15
  %24 = load float, ptr %3, align 4
  ret float %24
}

; Function Attrs: inlinehint mustprogress nounwind uwtable
define internal noundef float @"_ZZN3gmx26FirstOrderPressureCouplingC1EiifPNS_19StatePropagatorDataEPNS_10EnergyDataEP8_IO_FILEPK10t_inputrecPKNS_7MDAtomsEP6t_nrnbNS_33ReportPreviousStepConservedEnergyEENK3$_0clEld"(ptr noundef nonnull align 8 dereferenceable(8) %0, i64 noundef %1, double noundef %2) #2 align 2 {
  %4 = alloca ptr, align 8
  %5 = alloca i64, align 8
  %6 = alloca double, align 8
  store ptr %0, ptr %4, align 8, !tbaa !170
  store i64 %1, ptr %5, align 8, !tbaa !9
  store double %2, ptr %6, align 8, !tbaa !11
  %7 = load ptr, ptr %4, align 8
  %8 = getelementptr inbounds nuw %class.anon.328, ptr %7, i32 0, i32 0
  %9 = load ptr, ptr %8, align 8, !tbaa !686
  %10 = load i64, ptr %5, align 8, !tbaa !9
  %11 = call noundef float @_ZN3gmx26FirstOrderPressureCoupling27conservedEnergyContributionEl(ptr noundef nonnull align 8 dereferenceable(240) %9, i64 noundef %10)
  ret float %11
}

; Function Attrs: mustprogress nounwind uwtable
define linkonce_odr noundef ptr @_ZNKSt9_Any_data9_M_accessEv(ptr noundef nonnull align 8 dereferenceable(16) %0) #1 comdat align 2 {
  %2 = alloca ptr, align 8
  store ptr %0, ptr %2, align 8, !tbaa !177
  %3 = load ptr, ptr %2, align 8
  %4 = getelementptr inbounds [16 x i8], ptr %3, i64 0, i64 0
  ret ptr %4
}

; Function Attrs: mustprogress uwtable
define internal noundef float @"_ZSt13__invoke_implIfRZN3gmx26FirstOrderPressureCouplingC1EiifPNS0_19StatePropagatorDataEPNS0_10EnergyDataEP8_IO_FILEPK10t_inputrecPKNS0_7MDAtomsEP6t_nrnbNS0_33ReportPreviousStepConservedEnergyEE3$_0JldEET_St14__invoke_otherOT0_DpOT1_"(ptr noundef nonnull align 8 dereferenceable(8) %0, ptr noundef nonnull align 8 dereferenceable(8) %1, ptr noundef nonnull align 8 dereferenceable(8) %2) #0 {
  %4 = alloca ptr, align 8
  %5 = alloca ptr, align 8
  %6 = alloca ptr, align 8
  store ptr %0, ptr %4, align 8, !tbaa !170
  store ptr %1, ptr %5, align 8, !tbaa !298
  store ptr %2, ptr %6, align 8, !tbaa !296
  %7 = load ptr, ptr %4, align 8, !tbaa !170
  %8 = load ptr, ptr %5, align 8, !tbaa !298
  %9 = load i64, ptr %8, align 8, !tbaa !9
  %10 = load ptr, ptr %6, align 8, !tbaa !296
  %11 = load double, ptr %10, align 8, !tbaa !11
  %12 = call noundef float @"_ZZN3gmx26FirstOrderPressureCouplingC1EiifPNS_19StatePropagatorDataEPNS_10EnergyDataEP8_IO_FILEPK10t_inputrecPKNS_7MDAtomsEP6t_nrnbNS_33ReportPreviousStepConservedEnergyEENK3$_0clEld"(ptr noundef nonnull align 8 dereferenceable(8) %7, i64 noundef %9, double noundef %11)
  ret float %12
}

; Function Attrs: mustprogress nounwind uwtable
define internal noundef nonnull align 8 dereferenceable(8) ptr @"_ZNKSt9_Any_data9_M_accessIZN3gmx26FirstOrderPressureCouplingC1EiifPNS1_19StatePropagatorDataEPNS1_10EnergyDataEP8_IO_FILEPK10t_inputrecPKNS1_7MDAtomsEP6t_nrnbNS1_33ReportPreviousStepConservedEnergyEE3$_0EERKT_v"(ptr noundef nonnull align 8 dereferenceable(16) %0) #1 align 2 {
  %2 = alloca ptr, align 8
  store ptr %0, ptr %2, align 8, !tbaa !177
  %3 = load ptr, ptr %2, align 8
  %4 = call noundef ptr @_ZNKSt9_Any_data9_M_accessEv(ptr noundef nonnull align 8 dereferenceable(16) %3) #23
  ret ptr %4
}

; Function Attrs: mustprogress uwtable
define internal noundef float @"_ZSt10__invoke_rIfRZN3gmx26FirstOrderPressureCouplingC1EiifPNS0_19StatePropagatorDataEPNS0_10EnergyDataEP8_IO_FILEPK10t_inputrecPKNS0_7MDAtomsEP6t_nrnbNS0_33ReportPreviousStepConservedEnergyEE3$_0JldEENSt9enable_ifIX16is_invocable_r_vIT_T0_DpT1_EESK_E4typeEOSL_DpOSM_"(ptr noundef nonnull align 8 dereferenceable(8) %0, ptr noundef nonnull align 8 dereferenceable(8) %1, ptr noundef nonnull align 8 dereferenceable(8) %2) #0 {
  %4 = alloca ptr, align 8
  %5 = alloca ptr, align 8
  %6 = alloca ptr, align 8
  store ptr %0, ptr %4, align 8, !tbaa !170
  store ptr %1, ptr %5, align 8, !tbaa !298
  store ptr %2, ptr %6, align 8, !tbaa !296
  %7 = load ptr, ptr %4, align 8, !tbaa !170
  %8 = load ptr, ptr %5, align 8, !tbaa !298
  %9 = load ptr, ptr %6, align 8, !tbaa !296
  %10 = call noundef float @"_ZSt13__invoke_implIfRZN3gmx26FirstOrderPressureCouplingC1EiifPNS0_19StatePropagatorDataEPNS0_10EnergyDataEP8_IO_FILEPK10t_inputrecPKNS0_7MDAtomsEP6t_nrnbNS0_33ReportPreviousStepConservedEnergyEE3$_0JldEET_St14__invoke_otherOT0_DpOT1_"(ptr noundef nonnull align 8 dereferenceable(8) %7, ptr noundef nonnull align 8 dereferenceable(8) %8, ptr noundef nonnull align 8 dereferenceable(8) %9)
  ret float %10
}

; Function Attrs: mustprogress nounwind uwtable
define internal noundef ptr @"_ZNSt14_Function_base13_Base_managerIZN3gmx26FirstOrderPressureCouplingC1EiifPNS1_19StatePropagatorDataEPNS1_10EnergyDataEP8_IO_FILEPK10t_inputrecPKNS1_7MDAtomsEP6t_nrnbNS1_33ReportPreviousStepConservedEnergyEE3$_0E14_M_get_pointerERKSt9_Any_data"(ptr noundef nonnull align 8 dereferenceable(16) %0) #1 align 2 {
  %2 = alloca ptr, align 8
  %3 = alloca ptr, align 8
  store ptr %0, ptr %2, align 8, !tbaa !177
  call void @llvm.lifetime.start.p0(i64 8, ptr %3) #23
  %4 = load ptr, ptr %2, align 8, !tbaa !177
  %5 = call noundef nonnull align 8 dereferenceable(8) ptr @"_ZNKSt9_Any_data9_M_accessIZN3gmx26FirstOrderPressureCouplingC1EiifPNS1_19StatePropagatorDataEPNS1_10EnergyDataEP8_IO_FILEPK10t_inputrecPKNS1_7MDAtomsEP6t_nrnbNS1_33ReportPreviousStepConservedEnergyEE3$_0EERKT_v"(ptr noundef nonnull align 8 dereferenceable(16) %4) #23
  store ptr %5, ptr %3, align 8, !tbaa !170
  %6 = load ptr, ptr %3, align 8, !tbaa !170
  call void @llvm.lifetime.end.p0(i64 8, ptr %3) #23
  ret ptr %6
}

; Function Attrs: mustprogress uwtable
define internal noundef float @"_ZNSt17_Function_handlerIFfldEZN3gmx26FirstOrderPressureCouplingC1EiifPNS1_19StatePropagatorDataEPNS1_10EnergyDataEP8_IO_FILEPK10t_inputrecPKNS1_7MDAtomsEP6t_nrnbNS1_33ReportPreviousStepConservedEnergyEE3$_0E9_M_invokeERKSt9_Any_dataOlOd"(ptr noundef nonnull align 8 dereferenceable(16) %0, ptr noundef nonnull align 8 dereferenceable(8) %1, ptr noundef nonnull align 8 dereferenceable(8) %2) #0 align 2 {
  %4 = alloca ptr, align 8
  %5 = alloca ptr, align 8
  %6 = alloca ptr, align 8
  store ptr %0, ptr %4, align 8, !tbaa !177
  store ptr %1, ptr %5, align 8, !tbaa !298
  store ptr %2, ptr %6, align 8, !tbaa !296
  %7 = load ptr, ptr %4, align 8, !tbaa !177
  %8 = call noundef ptr @"_ZNSt14_Function_base13_Base_managerIZN3gmx26FirstOrderPressureCouplingC1EiifPNS1_19StatePropagatorDataEPNS1_10EnergyDataEP8_IO_FILEPK10t_inputrecPKNS1_7MDAtomsEP6t_nrnbNS1_33ReportPreviousStepConservedEnergyEE3$_0E14_M_get_pointerERKSt9_Any_data"(ptr noundef nonnull align 8 dereferenceable(16) %7) #23
  %9 = load ptr, ptr %5, align 8, !tbaa !298
  %10 = load ptr, ptr %6, align 8, !tbaa !296
  %11 = call noundef float @"_ZSt10__invoke_rIfRZN3gmx26FirstOrderPressureCouplingC1EiifPNS0_19StatePropagatorDataEPNS0_10EnergyDataEP8_IO_FILEPK10t_inputrecPKNS0_7MDAtomsEP6t_nrnbNS0_33ReportPreviousStepConservedEnergyEE3$_0JldEENSt9enable_ifIX16is_invocable_r_vIT_T0_DpT1_EESK_E4typeEOSL_DpOSM_"(ptr noundef nonnull align 8 dereferenceable(8) %8, ptr noundef nonnull align 8 dereferenceable(8) %9, ptr noundef nonnull align 8 dereferenceable(8) %10)
  ret float %11
}