; Function Attrs: mustprogress nofree norecurse nosync nounwind willreturn memory(read, inaccessiblemem: none) uwtable
define internal noundef float @"_ZNSt17_Function_handlerIFfldEZN3gmx26FirstOrderPressureCouplingC1EiifPNS1_19StatePropagatorDataEPNS1_10EnergyDataEP8_IO_FILEPK10t_inputrecPKNS1_7MDAtomsEP6t_nrnbNS1_33ReportPreviousStepConservedEnergyEE3$_0E9_M_invokeERKSt9_Any_dataOlOd"(ptr noundef nonnull readonly align 8 captures(none) dereferenceable(16) %0, ptr noundef nonnull readonly align 8 captures(none) dereferenceable(8) %1, ptr nonnull readonly align 8 captures(none) %2) #24 align 2 {
  %.val = load ptr, ptr %0, align 8, !tbaa !389
  %.val3 = load i64, ptr %1, align 8, !tbaa !40
  %4 = getelementptr inbounds nuw i8, ptr %.val, i64 144
  %5 = load i64, ptr %4, align 8, !tbaa !240
  %6 = icmp eq i64 %.val3, %5
  %7 = getelementptr inbounds nuw i8, ptr %.val, i64 152
  %8 = load i32, ptr %7, align 8
  %9 = icmp eq i32 %8, 0
  %or.cond.i.i.i.i = select i1 %6, i1 %9, i1 false
  %.0.in.in.v.i.i.i.i = select i1 %or.cond.i.i.i.i, i64 136, i64 128
  %.0.in.in.i.i.i.i = getelementptr inbounds nuw i8, ptr %.val, i64 %.0.in.in.v.i.i.i.i
  %.0.in.i.i.i.i = load double, ptr %.0.in.in.i.i.i.i, align 8, !tbaa !244
  %.0.i.i.i.i = fptrunc double %.0.in.i.i.i.i to float
  ret float %.0.i.i.i.i
}